target datalayout = "e-m:e-p270:32:32-p271:32:32-p272:64:64-i64:64-i128:128-f80:128-n8:16:32:64-S128"
target triple = "x86_64-unknown-linux-gnu"

%"class.grpc_core::NoDestruct" = type { [24 x i8] }
%"struct.grpc_core::PerCpuShardingHelper::State" = type { i16, i16 }
%"class.grpc_core::GlobalStatsCollector" = type { %"class.grpc_core::PerCpu" }
%"class.grpc_core::PerCpu" = type { %"class.grpc_core::PerCpuShardingHelper", i64, %"class.std::unique_ptr" }
%"class.grpc_core::PerCpuShardingHelper" = type { i8 }
%"class.std::unique_ptr" = type { %"struct.std::__uniq_ptr_data" }
%"struct.std::__uniq_ptr_data" = type { %"class.std::__uniq_ptr_impl" }
%"class.std::__uniq_ptr_impl" = type { %"class.std::tuple" }
%"class.std::tuple" = type { %"struct.std::_Tuple_impl" }
%"struct.std::_Tuple_impl" = type { %"struct.std::_Head_base.1" }
%"struct.std::_Head_base.1" = type { ptr }
%"struct.grpc_core::GlobalStatsCollector::Data" = type { %"struct.std::atomic.21", %"struct.std::atomic.21", %"struct.std::atomic.21", %"struct.std::atomic.21", %"struct.std::atomic.21", %"struct.std::atomic.21", %"struct.std::atomic.21", %"struct.std::atomic.21", %"struct.std::atomic.21", %"struct.std::atomic.21", %"struct.std::atomic.21", %"struct.std::atomic.21", %"struct.std::atomic.21", %"struct.std::atomic.21", %"struct.std::atomic.21", %"struct.std::atomic.21", %"struct.std::atomic.21", %"struct.std::atomic.21", %"struct.std::atomic.21", %"struct.std::atomic.21", %"struct.std::atomic.21", %"class.grpc_core::HistogramCollector_65536_26", %"class.grpc_core::HistogramCollector_16777216_20", %"class.grpc_core::HistogramCollector_80_10", %"class.grpc_core::HistogramCollector_16777216_20", %"class.grpc_core::HistogramCollector_16777216_20", %"class.grpc_core::HistogramCollector_80_10", %"class.grpc_core::HistogramCollector_16777216_20", %"class.grpc_core::HistogramCollector_65536_26", %"class.grpc_core::HistogramCollector_10000_20", %"class.grpc_core::HistogramCollector_10000_20", %"class.grpc_core::HistogramCollector_100000_20", %"class.grpc_core::HistogramCollector_100000_20", %"class.grpc_core::HistogramCollector_100000_20", %"class.grpc_core::HistogramCollector_10000_20" }
%"struct.std::atomic.21" = type { %"struct.std::__atomic_base.22" }
%"struct.std::__atomic_base.22" = type { i64 }
%"class.grpc_core::HistogramCollector_80_10" = type { [10 x %"struct.std::atomic.21"] }
%"class.grpc_core::HistogramCollector_16777216_20" = type { [20 x %"struct.std::atomic.21"] }
%"class.grpc_core::HistogramCollector_65536_26" = type { [26 x %"struct.std::atomic.21"] }
%"class.grpc_core::HistogramCollector_100000_20" = type { [20 x %"struct.std::atomic.21"] }
%"class.grpc_core::HistogramCollector_10000_20" = type { [20 x %"struct.std::atomic.21"] }

@_ZN9grpc_core19NoDestructSingletonINS_20GlobalStatsCollectorEE6value_E = linkonce_odr global %"class.grpc_core::NoDestruct" zeroinitializer, comdat, align 8
@_ZN9grpc_core20PerCpuShardingHelper6state_E = external thread_local global %"struct.grpc_core::PerCpuShardingHelper::State", align 2

; Function Attrs: mustprogress nounwind uwtable
define linkonce_odr noundef nonnull align 8 dereferenceable(8) ptr @_ZNSt10_Head_baseILm0EPN9grpc_core20GlobalStatsCollector4DataELb0EE7_M_headERKS4_(ptr noundef nonnull align 8 dereferenceable(8) %__b) #6 comdat align 2 {
entry:
  %__b.addr = alloca ptr, align 8
  store ptr %__b, ptr %__b.addr, align 8
  %0 = load ptr, ptr %__b.addr, align 8
  %_M_head_impl = getelementptr inbounds %"struct.std::_Head_base.1", ptr %0, i32 0, i32 0
  ret ptr %_M_head_impl
}

; Function Attrs: mustprogress nounwind uwtable
define linkonce_odr noundef nonnull align 8 dereferenceable(8) ptr @_ZNSt11_Tuple_implILm0EJPN9grpc_core20GlobalStatsCollector4DataESt14default_deleteIA_S2_EEE7_M_headERKS7_(ptr noundef nonnull align 8 dereferenceable(8) %__t) #6 comdat align 2 {
entry:
  %__t.addr = alloca ptr, align 8
  store ptr %__t, ptr %__t.addr, align 8
  %0 = load ptr, ptr %__t.addr, align 8
  %call = call noundef nonnull align 8 dereferenceable(8) ptr @_ZNSt10_Head_baseILm0EPN9grpc_core20GlobalStatsCollector4DataELb0EE7_M_headERKS4_(ptr noundef nonnull align 8 dereferenceable(8) %0) #3
  ret ptr %call
}

; Function Attrs: mustprogress nounwind uwtable
define linkonce_odr noundef nonnull align 8 dereferenceable(8) ptr @_ZSt12__get_helperILm0EPN9grpc_core20GlobalStatsCollector4DataEJSt14default_deleteIA_S2_EEERKT0_RKSt11_Tuple_implIXT_EJS7_DpT1_EE(ptr noundef nonnull align 8 dereferenceable(8) %__t) #6 comdat {
entry:
  %__t.addr = alloca ptr, align 8
  store ptr %__t, ptr %__t.addr, align 8
  %0 = load ptr, ptr %__t.addr, align 8
  %call = call noundef nonnull align 8 dereferenceable(8) ptr @_ZNSt11_Tuple_implILm0EJPN9grpc_core20GlobalStatsCollector4DataESt14default_deleteIA_S2_EEE7_M_headERKS7_(ptr noundef nonnull align 8 dereferenceable(8) %0) #3
  ret ptr %call
}

; Function Attrs: mustprogress nounwind uwtable
define linkonce_odr noundef nonnull align 8 dereferenceable(8) ptr @_ZSt3getILm0EJPN9grpc_core20GlobalStatsCollector4DataESt14default_deleteIA_S2_EEERKNSt13tuple_elementIXT_ESt5tupleIJDpT0_EEE4typeERKSB_(ptr noundef nonnull align 8 dereferenceable(8) %__t) #6 comdat {
entry:
  %__t.addr = alloca ptr, align 8
  store ptr %__t, ptr %__t.addr, align 8
  %0 = load ptr, ptr %__t.addr, align 8
  %call = call noundef nonnull align 8 dereferenceable(8) ptr @_ZSt12__get_helperILm0EPN9grpc_core20GlobalStatsCollector4DataEJSt14default_deleteIA_S2_EEERKT0_RKSt11_Tuple_implIXT_EJS7_DpT1_EE(ptr noundef nonnull align 8 dereferenceable(8) %0) #3
  ret ptr %call
}

; Function Attrs: mustprogress nounwind uwtable
define linkonce_odr noundef ptr @_ZNKSt15__uniq_ptr_implIN9grpc_core20GlobalStatsCollector4DataESt14default_deleteIA_S2_EE6_M_ptrEv(ptr noundef nonnull align 8 dereferenceable(8) %this) #6 comdat align 2 {
entry:
  %this.addr = alloca ptr, align 8
  store ptr %this, ptr %this.addr, align 8
  %this1 = load ptr, ptr %this.addr, align 8
  %_M_t = getelementptr inbounds %"class.std::__uniq_ptr_impl", ptr %this1, i32 0, i32 0
  %call = call noundef nonnull align 8 dereferenceable(8) ptr @_ZSt3getILm0EJPN9grpc_core20GlobalStatsCollector4DataESt14default_deleteIA_S2_EEERKNSt13tuple_elementIXT_ESt5tupleIJDpT0_EEE4typeERKSB_(ptr noundef nonnull align 8 dereferenceable(8) %_M_t) #3
  %0 = load ptr, ptr %call, align 8
  ret ptr %0
}

; Function Attrs: mustprogress nounwind uwtable
define linkonce_odr noundef ptr @_ZNKSt10unique_ptrIA_N9grpc_core20GlobalStatsCollector4DataESt14default_deleteIS3_EE3getEv(ptr noundef nonnull align 8 dereferenceable(8) %this) #6 comdat align 2 {
entry:
  %this.addr = alloca ptr, align 8
  store ptr %this, ptr %this.addr, align 8
  %this1 = load ptr, ptr %this.addr, align 8
  %_M_t = getelementptr inbounds %"class.std::unique_ptr", ptr %this1, i32 0, i32 0
  %call = call noundef ptr @_ZNKSt15__uniq_ptr_implIN9grpc_core20GlobalStatsCollector4DataESt14default_deleteIA_S2_EE6_M_ptrEv(ptr noundef nonnull align 8 dereferenceable(8) %_M_t) #3
  ret ptr %call
}

; Function Attrs: mustprogress uwtable
define linkonce_odr void @_ZN9grpc_core20PerCpuShardingHelper5StateC2Ev(ptr noundef nonnull align 2 dereferenceable(4) %this) unnamed_addr #4 comdat align 2 {
entry:
  %this.addr = alloca ptr, align 8
  store ptr %this, ptr %this.addr, align 8
  %this1 = load ptr, ptr %this.addr, align 8
  %last_seen_cpu = getelementptr inbounds %"struct.grpc_core::PerCpuShardingHelper::State", ptr %this1, i32 0, i32 0
  %call = call i32 @gpr_cpu_current_cpu()
  %conv = trunc i32 %call to i16
  store i16 %conv, ptr %last_seen_cpu, align 2
  %uses_until_refresh = getelementptr inbounds %"struct.grpc_core::PerCpuShardingHelper::State", ptr %this1, i32 0, i32 1
  store i16 -1, ptr %uses_until_refresh, align 2
  ret void
}

; Function Attrs: uwtable
define linkonce_odr hidden noundef ptr @_ZTWN9grpc_core20PerCpuShardingHelper6state_E() #11 comdat {
  br i1 icmp ne (ptr @_ZTHN9grpc_core20PerCpuShardingHelper6state_E, ptr null), label %1, label %2

1:                                                ; preds = %0
  call void @_ZTHN9grpc_core20PerCpuShardingHelper6state_E()
  br label %2

2:                                                ; preds = %1, %0
  %3 = call align 2 ptr @llvm.threadlocal.address.p0(ptr align 2 @_ZN9grpc_core20PerCpuShardingHelper6state_E)
  ret ptr %3
}

; Function Attrs: mustprogress nounwind uwtable
define linkonce_odr noundef ptr @_ZN9grpc_core10NoDestructINS_20GlobalStatsCollectorEE3getEv(ptr noundef nonnull align 8 dereferenceable(24) %this) #6 comdat align 2 {
entry:
  %this.addr = alloca ptr, align 8
  store ptr %this, ptr %this.addr, align 8
  %this1 = load ptr, ptr %this.addr, align 8
  %space_ = getelementptr inbounds %"class.grpc_core::NoDestruct", ptr %this1, i32 0, i32 0
  ret ptr %space_
}

; Function Attrs: mustprogress nounwind uwtable
define linkonce_odr noundef nonnull align 8 dereferenceable(2344) ptr @_ZNKSt10unique_ptrIA_N9grpc_core20GlobalStatsCollector4DataESt14default_deleteIS3_EEixEm(ptr noundef nonnull align 8 dereferenceable(8) %this, i64 noundef %__i) #6 comdat align 2 {
entry:
  %this.addr = alloca ptr, align 8
  %__i.addr = alloca i64, align 8
  store ptr %this, ptr %this.addr, align 8
  store i64 %__i, ptr %__i.addr, align 8
  %this1 = load ptr, ptr %this.addr, align 8
  br label %do.body

do.body:                                          ; preds = %entry
  br label %do.end

do.end:                                           ; preds = %do.body
  %call = call noundef ptr @_ZNKSt10unique_ptrIA_N9grpc_core20GlobalStatsCollector4DataESt14default_deleteIS3_EE3getEv(ptr noundef nonnull align 8 dereferenceable(8) %this1) #3
  %0 = load i64, ptr %__i.addr, align 8
  %arrayidx = getelementptr inbounds %"struct.grpc_core::GlobalStatsCollector::Data", ptr %call, i64 %0
  ret ptr %arrayidx
}

; Function Attrs: mustprogress uwtable
define linkonce_odr noundef i64 @_ZN9grpc_core20PerCpuShardingHelper15GetShardingBitsEv(ptr noundef nonnull align 1 dereferenceable(1) %this) #4 comdat align 2 {
entry:
  %this.addr = alloca ptr, align 8
  %ref.tmp = alloca %"struct.grpc_core::PerCpuShardingHelper::State", align 2
  store ptr %this, ptr %this.addr, align 8
  %0 = call ptr @_ZTWN9grpc_core20PerCpuShardingHelper6state_E()
  %uses_until_refresh = getelementptr inbounds %"struct.grpc_core::PerCpuShardingHelper::State", ptr %0, i32 0, i32 1
  %1 = load i16, ptr %uses_until_refresh, align 2
  %conv = zext i16 %1 to i32
  %cmp = icmp eq i32 %conv, 0
  br i1 %cmp, label %if.then, label %if.end

if.then:                                          ; preds = %entry
  call void @llvm.memset.p0.i64(ptr align 2 %ref.tmp, i8 0, i64 4, i1 false)
  call void @_ZN9grpc_core20PerCpuShardingHelper5StateC2Ev(ptr noundef nonnull align 2 dereferenceable(4) %ref.tmp)
  %2 = call ptr @_ZTWN9grpc_core20PerCpuShardingHelper6state_E()
  call void @llvm.memcpy.p0.p0.i64(ptr align 2 %2, ptr align 2 %ref.tmp, i64 4, i1 false)
  br label %if.end

if.end:                                           ; preds = %if.then, %entry
  %3 = call ptr @_ZTWN9grpc_core20PerCpuShardingHelper6state_E()
  %uses_until_refresh3 = getelementptr inbounds %"struct.grpc_core::PerCpuShardingHelper::State", ptr %3, i32 0, i32 1
  %4 = load i16, ptr %uses_until_refresh3, align 2
  %dec = add i16 %4, -1
  store i16 %dec, ptr %uses_until_refresh3, align 2
  %5 = call ptr @_ZTWN9grpc_core20PerCpuShardingHelper6state_E()
  %last_seen_cpu = getelementptr inbounds %"struct.grpc_core::PerCpuShardingHelper::State", ptr %5, i32 0, i32 0
  %6 = load i16, ptr %last_seen_cpu, align 2
  %conv4 = zext i16 %6 to i64
  ret i64 %conv4
}

; Function Attrs: mustprogress uwtable
define linkonce_odr noundef nonnull align 8 dereferenceable(24) ptr @_ZN9grpc_core10NoDestructINS_20GlobalStatsCollectorEEdeEv(ptr noundef nonnull align 8 dereferenceable(24) %this) #4 comdat align 2 {
entry:
  %this.addr = alloca ptr, align 8
  store ptr %this, ptr %this.addr, align 8
  %this1 = load ptr, ptr %this.addr, align 8
  %call = call noundef ptr @_ZN9grpc_core10NoDestructINS_20GlobalStatsCollectorEE3getEv(ptr noundef nonnull align 8 dereferenceable(24) %this1)
  ret ptr %call
}

; Function Attrs: mustprogress uwtable
define linkonce_odr noundef nonnull align 8 dereferenceable(2344) ptr @_ZN9grpc_core6PerCpuINS_20GlobalStatsCollector4DataEE8this_cpuEv(ptr noundef nonnull align 8 dereferenceable(24) %this) #4 comdat align 2 {
entry:
  %this.addr = alloca ptr, align 8
  store ptr %this, ptr %this.addr, align 8
  %this1 = load ptr, ptr %this.addr, align 8
  %data_ = getelementptr inbounds %"class.grpc_core::PerCpu", ptr %this1, i32 0, i32 2
  %sharding_helper_ = getelementptr inbounds %"class.grpc_core::PerCpu", ptr %this1, i32 0, i32 0
  %call = call noundef i64 @_ZN9grpc_core20PerCpuShardingHelper15GetShardingBitsEv(ptr noundef nonnull align 1 dereferenceable(1) %sharding_helper_)
  %shards_ = getelementptr inbounds %"class.grpc_core::PerCpu", ptr %this1, i32 0, i32 1
  %0 = load i64, ptr %shards_, align 8
  %rem = urem i64 %call, %0
  %call2 = call noundef nonnull align 8 dereferenceable(2344) ptr @_ZNKSt10unique_ptrIA_N9grpc_core20GlobalStatsCollector4DataESt14default_deleteIS3_EEixEm(ptr noundef nonnull align 8 dereferenceable(8) %data_, i64 noundef %rem)
  ret ptr %call2
}

; Function Attrs: mustprogress uwtable
define linkonce_odr noundef ptr @_ZN9grpc_core19NoDestructSingletonINS_20GlobalStatsCollectorEE3GetEv() #4 comdat align 2 {
entry:
  %call = call noundef nonnull align 8 dereferenceable(24) ptr @_ZN9grpc_core10NoDestructINS_20GlobalStatsCollectorEEdeEv(ptr noundef nonnull align 8 dereferenceable(24) @_ZN9grpc_core19NoDestructSingletonINS_20GlobalStatsCollectorEE6value_E)
  ret ptr %call
}

; Function Attrs: mustprogress uwtable
define linkonce_odr void @_ZN9grpc_core20GlobalStatsCollector21IncrementSyscallWriteEv(ptr noundef nonnull align 8 dereferenceable(24) %this) #4 comdat align 2 {
entry:
  %this.addr.i = alloca ptr, align 8
  %__i.addr.i = alloca i64, align 8
  %__m.addr.i = alloca i32, align 4
  %.atomictmp.i = alloca i64, align 8
  %atomic-temp.i = alloca i64, align 8
  %this.addr = alloca ptr, align 8
  store ptr %this, ptr %this.addr, align 8
  %this1 = load ptr, ptr %this.addr, align 8
  %data_ = getelementptr inbounds %"class.grpc_core::GlobalStatsCollector", ptr %this1, i32 0, i32 0
  %call = call noundef nonnull align 8 dereferenceable(2344) ptr @_ZN9grpc_core6PerCpuINS_20GlobalStatsCollector4DataEE8this_cpuEv(ptr noundef nonnull align 8 dereferenceable(24) %data_)
  %syscall_write = getelementptr inbounds %"struct.grpc_core::GlobalStatsCollector::Data", ptr %call, i32 0, i32 6
  store ptr %syscall_write, ptr %this.addr.i, align 8
  store i64 1, ptr %__i.addr.i, align 8
  store i32 0, ptr %__m.addr.i, align 4
  %this1.i = load ptr, ptr %this.addr.i, align 8
  %0 = load i32, ptr %__m.addr.i, align 4
  %1 = load i64, ptr %__i.addr.i, align 8
  store i64 %1, ptr %.atomictmp.i, align 8
  switch i32 %0, label %monotonic.i [
    i32 1, label %acquire.i
    i32 2, label %acquire.i
    i32 3, label %release.i
    i32 4, label %acqrel.i
    i32 5, label %seqcst.i
  ]

monotonic.i:                                      ; preds = %entry
  %2 = load i64, ptr %.atomictmp.i, align 8
  %3 = atomicrmw add ptr %this1.i, i64 %2 monotonic, align 8
  store i64 %3, ptr %atomic-temp.i, align 8
  br label %_ZNSt13__atomic_baseImE9fetch_addEmSt12memory_order.exit

acquire.i:                                        ; preds = %entry, %entry
  %4 = load i64, ptr %.atomictmp.i, align 8
  %5 = atomicrmw add ptr %this1.i, i64 %4 acquire, align 8
  store i64 %5, ptr %atomic-temp.i, align 8
  br label %_ZNSt13__atomic_baseImE9fetch_addEmSt12memory_order.exit

release.i:                                        ; preds = %entry
  %6 = load i64, ptr %.atomictmp.i, align 8
  %7 = atomicrmw add ptr %this1.i, i64 %6 release, align 8
  store i64 %7, ptr %atomic-temp.i, align 8
  br label %_ZNSt13__atomic_baseImE9fetch_addEmSt12memory_order.exit

acqrel.i:                                         ; preds = %entry
  %8 = load i64, ptr %.atomictmp.i, align 8
  %9 = atomicrmw add ptr %this1.i, i64 %8 acq_rel, align 8
  store i64 %9, ptr %atomic-temp.i, align 8
  br label %_ZNSt13__atomic_baseImE9fetch_addEmSt12memory_order.exit

seqcst.i:                                         ; preds = %entry
  %10 = load i64, ptr %.atomictmp.i, align 8
  %11 = atomicrmw add ptr %this1.i, i64 %10 seq_cst, align 8
  store i64 %11, ptr %atomic-temp.i, align 8
  br label %_ZNSt13__atomic_baseImE9fetch_addEmSt12memory_order.exit

_ZNSt13__atomic_baseImE9fetch_addEmSt12memory_order.exit: ; preds = %seqcst.i, %acqrel.i, %release.i, %acquire.i, %monotonic.i
  ret void
}

; Function Attrs: mustprogress uwtable
define linkonce_odr noundef nonnull align 8 dereferenceable(24) ptr @_ZN9grpc_core12global_statsEv() #4 comdat {
entry:
  %call = call noundef ptr @_ZN9grpc_core19NoDestructSingletonINS_20GlobalStatsCollectorEE3GetEv()
  ret ptr %call
}

; Function Attrs: mustprogress uwtable
define noundef i64 @_Z8tcp_sendiPK6msghdrPii(i32 noundef %fd, ptr noundef %msg, ptr noundef %saved_errno, i32 noundef %additional_flags) #4 {
entry:
  %fd.addr = alloca i32, align 4
  %msg.addr = alloca ptr, align 8
  %saved_errno.addr = alloca ptr, align 8
  %additional_flags.addr = alloca i32, align 4
  %sent_length = alloca i64, align 8
  store i32 %fd, ptr %fd.addr, align 4
  store ptr %msg, ptr %msg.addr, align 8
  store ptr %saved_errno, ptr %saved_errno.addr, align 8
  store i32 %additional_flags, ptr %additional_flags.addr, align 4
  br label %do.body

do.body:                                          ; preds = %land.end, %entry
  %call = call noundef nonnull align 8 dereferenceable(24) ptr @_ZN9grpc_core12global_statsEv()
  call void @_ZN9grpc_core20GlobalStatsCollector21IncrementSyscallWriteEv(ptr noundef nonnull align 8 dereferenceable(24) %call)
  %0 = load i32, ptr %fd.addr, align 4
  %1 = load ptr, ptr %msg.addr, align 8
  %2 = load i32, ptr %additional_flags.addr, align 4
  %or = or i32 16384, %2
  %call1 = call i64 @sendmsg(i32 noundef %0, ptr noundef %1, i32 noundef %or)
  store i64 %call1, ptr %sent_length, align 8
  br label %do.cond

do.cond:                                          ; preds = %do.body
  %3 = load i64, ptr %sent_length, align 8
  %cmp = icmp slt i64 %3, 0
  br i1 %cmp, label %land.rhs, label %land.end

land.rhs:                                         ; preds = %do.cond
  %call2 = call ptr @__errno_location() #16
  %4 = load i32, ptr %call2, align 4
  %5 = load ptr, ptr %saved_errno.addr, align 8
  store i32 %4, ptr %5, align 4
  %cmp3 = icmp eq i32 %4, 4
  br label %land.end

land.end:                                         ; preds = %land.rhs, %do.cond
  %6 = phi i1 [ false, %do.cond ], [ %cmp3, %land.rhs ]
  br i1 %6, label %do.body, label %do.end, !llvm.loop !4

do.end:                                           ; preds = %land.end
  %7 = load i64, ptr %sent_length, align 8
  ret i64 %7
}