; Function Attrs: uwtable
define noundef i64 @_Z8tcp_sendiPK6msghdrPii(i32 noundef %fd, ptr noundef %msg, ptr nocapture noundef writeonly %saved_errno, i32 noundef %additional_flags) local_unnamed_addr #3 {
entry:
  %0 = tail call align 2 ptr @llvm.threadlocal.address.p0(ptr align 2 @_ZN9grpc_core20PerCpuShardingHelper6state_E)
  %uses_until_refresh.i.i.i = getelementptr inbounds i8, ptr %0, i64 2
  %or = or i32 %additional_flags, 16384
  br label %do.body

do.body:                                          ; preds = %land.rhs, %entry
  br i1 icmp ne (ptr @_ZTHN9grpc_core20PerCpuShardingHelper6state_E, ptr null), label %1, label %_ZTWN9grpc_core20PerCpuShardingHelper6state_E.exit.i.i.i

1:                                                ; preds = %do.body
  tail call void @_ZTHN9grpc_core20PerCpuShardingHelper6state_E()
  br label %_ZTWN9grpc_core20PerCpuShardingHelper6state_E.exit.i.i.i

_ZTWN9grpc_core20PerCpuShardingHelper6state_E.exit.i.i.i: ; preds = %1, %do.body
  %2 = load i16, ptr %uses_until_refresh.i.i.i, align 2
  %cmp.i.i.i = icmp eq i16 %2, 0
  br i1 %cmp.i.i.i, label %if.then.i.i.i, label %if.end.i.i.i

if.then.i.i.i:                                    ; preds = %_ZTWN9grpc_core20PerCpuShardingHelper6state_E.exit.i.i.i
  %call.i.i.i.i = tail call i32 @gpr_cpu_current_cpu()
  br i1 icmp ne (ptr @_ZTHN9grpc_core20PerCpuShardingHelper6state_E, ptr null), label %3, label %_ZTWN9grpc_core20PerCpuShardingHelper6state_E.exit1.i.i.i

3:                                                ; preds = %if.then.i.i.i
  tail call void @_ZTHN9grpc_core20PerCpuShardingHelper6state_E()
  br label %_ZTWN9grpc_core20PerCpuShardingHelper6state_E.exit1.i.i.i

_ZTWN9grpc_core20PerCpuShardingHelper6state_E.exit1.i.i.i: ; preds = %3, %if.then.i.i.i
  %ref.tmp.sroa.0.0.insert.insert.i.i.i = or i32 %call.i.i.i.i, -65536
  store i32 %ref.tmp.sroa.0.0.insert.insert.i.i.i, ptr %0, align 2
  br label %if.end.i.i.i

if.end.i.i.i:                                     ; preds = %_ZTWN9grpc_core20PerCpuShardingHelper6state_E.exit1.i.i.i, %_ZTWN9grpc_core20PerCpuShardingHelper6state_E.exit.i.i.i
  %4 = phi i16 [ -1, %_ZTWN9grpc_core20PerCpuShardingHelper6state_E.exit1.i.i.i ], [ %2, %_ZTWN9grpc_core20PerCpuShardingHelper6state_E.exit.i.i.i ]
  br i1 icmp ne (ptr @_ZTHN9grpc_core20PerCpuShardingHelper6state_E, ptr null), label %_ZTWN9grpc_core20PerCpuShardingHelper6state_E.exit2.i.i.i, label %_ZTWN9grpc_core20PerCpuShardingHelper6state_E.exit3.critedge.i.i.i

_ZTWN9grpc_core20PerCpuShardingHelper6state_E.exit2.i.i.i: ; preds = %if.end.i.i.i
  tail call void @_ZTHN9grpc_core20PerCpuShardingHelper6state_E()
  %5 = load i16, ptr %uses_until_refresh.i.i.i, align 2
  %dec.i.i.i = add i16 %5, -1
  store i16 %dec.i.i.i, ptr %uses_until_refresh.i.i.i, align 2
  tail call void @_ZTHN9grpc_core20PerCpuShardingHelper6state_E()
  br label %_ZN9grpc_core20GlobalStatsCollector21IncrementSyscallWriteEv.exit

_ZTWN9grpc_core20PerCpuShardingHelper6state_E.exit3.critedge.i.i.i: ; preds = %if.end.i.i.i
  %dec.c.i.i.i = add i16 %4, -1
  store i16 %dec.c.i.i.i, ptr %uses_until_refresh.i.i.i, align 2
  br label %_ZN9grpc_core20GlobalStatsCollector21IncrementSyscallWriteEv.exit

_ZN9grpc_core20GlobalStatsCollector21IncrementSyscallWriteEv.exit: ; preds = %_ZTWN9grpc_core20PerCpuShardingHelper6state_E.exit2.i.i.i, %_ZTWN9grpc_core20PerCpuShardingHelper6state_E.exit3.critedge.i.i.i
  %6 = load i16, ptr %0, align 2
  %conv4.i.i.i = zext i16 %6 to i64
  %7 = load i64, ptr getelementptr inbounds (%"class.grpc_core::NoDestruct", ptr @_ZN9grpc_core19NoDestructSingletonINS_20GlobalStatsCollectorEE6value_E, i64 0, i32 0, i64 8), align 8
  %rem.i.i = urem i64 %conv4.i.i.i, %7
  %8 = load ptr, ptr getelementptr inbounds (%"class.grpc_core::NoDestruct", ptr @_ZN9grpc_core19NoDestructSingletonINS_20GlobalStatsCollectorEE6value_E, i64 0, i32 0, i64 16), align 8
  %syscall_write.i = getelementptr inbounds %"struct.grpc_core::GlobalStatsCollector::Data", ptr %8, i64 %rem.i.i, i32 6
  %9 = atomicrmw add ptr %syscall_write.i, i64 1 monotonic, align 8
  %call1 = tail call i64 @sendmsg(i32 noundef %fd, ptr noundef %msg, i32 noundef %or)
  %cmp = icmp slt i64 %call1, 0
  br i1 %cmp, label %land.rhs, label %do.end

land.rhs:                                         ; preds = %_ZN9grpc_core20GlobalStatsCollector21IncrementSyscallWriteEv.exit
  %call2 = tail call ptr @__errno_location() #22
  %10 = load i32, ptr %call2, align 4
  store i32 %10, ptr %saved_errno, align 4
  %cmp3 = icmp eq i32 %10, 4
  br i1 %cmp3, label %do.body, label %do.end, !llvm.loop !4

do.end:                                           ; preds = %_ZN9grpc_core20GlobalStatsCollector21IncrementSyscallWriteEv.exit, %land.rhs
  ret i64 %call1
}